Certificate:
    Data:
        Version: 3 (0x2)
        Serial Number: 2 (0x2)
    Signature Algorithm: sha1WithRSAEncryption
        Issuer: C=CN, ST=Si Chuan, L=Cheng Du, O=Yao Guai Ltd, OU=Yao Guai, CN=jegarn.com
        Validity
            Not Before: Aug 27 18:59:16 2016 GMT
            Not After : Aug 25 18:59:16 2026 GMT
        Subject: CN=jegarn.com, ST=Si Chuan, C=CN, O=Yao Guai Ltd, OU=Yao Guai
        Subject Public Key Info:
            Public Key Algorithm: rsaEncryption
                Public-Key: (2048 bit)
                Modulus:
                    00:bd:20:22:87:45:ae:e8:fa:cf:86:7c:d6:dd:a3:
                    b0:49:54:8e:98:71:df:91:8f:7b:ec:38:72:12:d4:
                    75:c4:9e:95:e4:4b:2e:91:47:8d:9b:bd:41:8d:b2:
                    48:83:77:91:1a:39:77:3c:72:a9:0b:14:01:52:cc:
                    6e:33:22:49:33:5b:e9:10:08:f1:36:ac:ff:f1:4d:
                    9b:d1:5d:7f:a8:6f:49:36:26:5d:96:63:bb:0b:b3:
                    00:46:ef:1a:85:5c:2f:da:fa:f5:5f:33:c8:15:ca:
                    7f:c6:df:71:30:0d:2c:22:e8:67:75:44:11:68:35:
                    c2:11:11:cb:93:9b:b6:f5:f1:af:7b:e1:74:83:a0:
                    ba:f8:bc:9f:70:3b:ed:ef:58:92:f7:03:b0:64:f5:
                    9e:e3:f5:8f:df:20:f2:89:84:78:4e:8c:3a:57:6f:
                    1a:28:ac:f2:ad:7d:3f:16:41:73:cd:c8:3e:6d:f8:
                    52:0c:c3:0d:25:d6:21:ad:d5:ad:a8:c9:fe:0f:0a:
                    d8:c6:fd:2f:2d:19:ac:50:e5:7a:60:4b:3a:85:dc:
                    0f:9a:03:56:82:6c:4e:b5:09:c8:9c:55:f8:fd:e3:
                    ed:55:1d:47:4d:72:17:62:b1:ad:58:36:0f:02:b9:
                    07:a1:93:5a:f1:90:75:b4:d7:77:dc:e4:3a:58:12:
                    b7:bd
                Exponent: 65537 (0x10001)
        X509v3 extensions:
            X509v3 Basic Constraints: 
                CA:FALSE
    Signature Algorithm: sha1WithRSAEncryption
         68:38:1f:e8:1d:fa:c0:51:f7:cd:9e:39:d0:01:34:0c:31:d4:
         16:95:23:4b:9f:47:1b:5b:25:61:14:8d:85:47:40:47:bc:c3:
         4b:15:b0:89:1e:af:92:44:77:f8:17:2b:68:3b:d8:59:09:2c:
         c0:77:9f:6b:46:6c:cd:11:68:02:1d:db:a4:bb:92:f5:76:db:
         57:20:47:d3:5c:84:e0:fd:a3:3b:ae:69:db:0e:03:ff:9d:ab:
         be:fd:92:ba:5b:65:b6:89:5c:54:06:9c:e6:7f:e5:61:3b:e9:
         cf:9d:9f:aa:2c:93:58:fc:4e:48:d4:3f:98:a8:52:17:fe:b6:
         ff:7c:ef:62:17:ab:dc:a2:2d:c4:85:9e:c5:86:64:4d:81:18:
         d1:a0:57:f9:6e:45:6a:ce:6b:a3:37:5c:92:59:09:55:b6:fb:
         85:cb:2d:78:11:19:82:bc:30:5d:f7:dc:ac:3d:2e:d3:fd:a0:
         b4:9b:35:c6:a5:e1:72:d0:87:e7:93:7a:73:41:6f:4a:f1:21:
         bb:e2:d4:8e:59:99:f8:ae:cf:15:53:cc:70:8f:1f:f1:9e:5f:
         6d:9a:33:7a:40:2d:d5:ea:83:2f:17:33:c6:36:08:96:a5:04:
         bd:de:6e:cb:9f:f0:9f:b4:c5:3f:da:98:92:9a:8a:c0:9d:cf:
         dc:25:4d:df
-----BEGIN CERTIFICATE-----
MIIDWTCCAkGgAwIBAgIBAjANBgkqhkiG9w0BAQUFADByMQswCQYDVQQGEwJDTjER
MA8GA1UECAwIU2kgQ2h1YW4xETAPBgNVBAcMCENoZW5nIER1MRUwEwYDVQQKDAxZ
YW8gR3VhaSBMdGQxETAPBgNVBAsMCFlhbyBHdWFpMRMwEQYDVQQDDApqZWdhcm4u
Y29tMB4XDTE2MDgyNzE4NTkxNloXDTI2MDgyNTE4NTkxNlowXzETMBEGA1UEAwwK
amVnYXJuLmNvbTERMA8GA1UECAwIU2kgQ2h1YW4xCzAJBgNVBAYTAkNOMRUwEwYD
VQQKDAxZYW8gR3VhaSBMdGQxETAPBgNVBAsMCFlhbyBHdWFpMIIBIjANBgkqhkiG
9w0BAQEFAAOCAQ8AMIIBCgKCAQEAvSAih0Wu6PrPhnzW3aOwSVSOmHHfkY977Dhy
EtR1xJ6V5EsukUeNm71BjbJIg3eRGjl3PHKpCxQBUsxuMyJJM1vpEAjxNqz/8U2b
0V1/qG9JNiZdlmO7C7MARu8ahVwv2vr1XzPIFcp/xt9xMA0sIuhndUQRaDXCERHL
k5u29fGve+F0g6C6+LyfcDvt71iS9wOwZPWe4/WP3yDyiYR4Tow6V28aKKzyrX0/
FkFzzcg+bfhSDMMNJdYhrdWtqMn+DwrYxv0vLRmsUOV6YEs6hdwPmgNWgmxOtQnI
nFX4/ePtVR1HTXIXYrGtWDYPArkHoZNa8ZB1tNd33OQ6WBK3vQIDAQABow0wCzAJ
BgNVHRMEAjAAMA0GCSqGSIb3DQEBBQUAA4IBAQBoOB/oHfrAUffNnjnQATQMMdQW
lSNLn0cbWyVhFI2FR0BHvMNLFbCJHq+SRHf4FytoO9hZCSzAd59rRmzNEWgCHduk
u5L1dttXIEfTXITg/aM7rmnbDgP/nau+/ZK6W2W2iVxUBpzmf+VhO+nPnZ+qLJNY
/E5I1D+YqFIX/rb/fO9iF6vcoi3EhZ7FhmRNgRjRoFf5bkVqzmujN1ySWQlVtvuF
yy14ERmCvDBd99ysPS7T/aC0mzXGpeFy0Ifnk3pzQW9K8SG74tSOWZn4rs8VU8xw
jx/xnl9tmjN6QC3V6oMvFzPGNgiWpQS93m7Ln/CftMU/2piSmorAnc/cJU3f
-----END CERTIFICATE-----
