Certificate:
    Data:
        Version: 3 (0x2)
        Serial Number: 2 (0x2)
    Signature Algorithm: sha1WithRSAEncryption
        Issuer: C=CN, ST=Si Chuan, L=Cheng Du, O=Yao Guai Ltd, OU=Yao Guai, CN=127.0.0.1
        Validity
            Not Before: Jan 18 04:47:41 2018 GMT
            Not After : Jan 16 04:47:41 2028 GMT
        Subject: CN=127.0.0.1, ST=Si Chuan, C=CN, O=Yao Guai Ltd, OU=Yao Guai
        Subject Public Key Info:
            Public Key Algorithm: rsaEncryption
                Public-Key: (2048 bit)
                Modulus:
                    00:e5:13:d0:a3:4b:91:86:11:07:7c:cd:10:fd:31:
                    d0:3f:41:fb:7c:5e:ce:86:4f:8d:79:e2:2a:1a:f2:
                    13:bf:06:c6:3b:8e:9c:ee:5f:f5:28:49:fd:27:d7:
                    fd:91:38:8b:f1:e3:95:a0:2a:6a:9d:69:18:ba:ba:
                    cf:ad:ff:51:9b:33:84:cf:77:51:e1:9d:af:d2:f1:
                    c2:3a:74:57:66:85:94:23:ee:34:f4:6b:1a:60:13:
                    e2:73:b2:a2:ea:23:db:0c:92:45:a7:9b:66:83:b5:
                    c1:15:ae:37:3a:b7:12:b9:97:4d:d6:74:c6:12:a1:
                    ae:f2:fd:53:19:a9:db:c9:52:07:80:2b:ef:b5:fc:
                    ed:b9:43:be:97:7f:54:62:4b:6f:1a:ea:98:ad:98:
                    32:1b:59:22:0d:dc:24:5e:e0:8c:8c:77:d6:c8:16:
                    cf:6d:2a:f4:36:c8:24:51:fd:29:e1:35:71:fc:6b:
                    f3:24:af:65:ea:9f:27:15:2f:2a:42:22:f1:05:c4:
                    d9:8c:74:8f:24:c3:99:b7:41:d0:7b:68:97:95:ea:
                    0f:ce:3d:64:9b:70:ef:44:1d:0b:73:77:c0:32:db:
                    18:df:37:e3:2b:11:06:00:15:71:4f:82:ba:6f:84:
                    36:92:70:d4:79:00:1a:d2:fc:93:76:72:0a:d6:a9:
                    14:43
                Exponent: 65537 (0x10001)
        X509v3 extensions:
            X509v3 Basic Constraints: 
                CA:FALSE
    Signature Algorithm: sha1WithRSAEncryption
         b1:50:fa:15:4b:eb:04:08:74:77:3a:d6:a5:cd:48:f0:66:03:
         e8:b1:e9:c0:52:f7:60:e0:43:34:b3:96:7e:ec:aa:be:79:6d:
         50:7b:4b:34:66:bc:31:f6:8d:fd:f7:90:67:ed:48:83:96:16:
         48:bc:1e:af:3f:bb:0c:30:0c:66:be:2b:a4:b7:f9:d5:38:56:
         09:9e:25:f1:6d:c3:fa:f7:a9:52:83:42:b4:7b:9b:ca:c3:4e:
         a3:2b:26:bb:70:b3:cb:04:b0:ac:a1:79:9e:73:18:58:e1:57:
         94:a3:6a:99:8a:9c:eb:9e:d9:fc:a5:f6:3d:50:65:a1:ee:b2:
         f4:a0:c4:da:e3:d7:5b:f4:d0:24:2c:37:a3:be:f9:fc:52:d7:
         42:f1:70:ac:d9:8f:1a:58:b5:ca:9c:8c:0d:44:e1:0d:c0:72:
         d3:0f:a7:ec:ba:e3:47:9a:8b:42:84:2e:52:c3:94:e7:4c:5f:
         9e:1d:c5:cd:f3:de:b8:c5:c3:8c:6e:1f:2f:7d:be:60:27:c2:
         d5:e1:48:ad:12:f7:42:3e:86:9a:33:94:ec:0d:f0:16:25:00:
         b8:ec:be:64:75:06:5d:90:11:ce:d3:f0:2f:c0:64:e3:8f:83:
         90:1f:3b:8c:9f:e0:23:00:25:a2:53:89:83:12:53:76:75:ce:
         de:72:06:ea
-----BEGIN CERTIFICATE-----
MIIDVzCCAj+gAwIBAgIBAjANBgkqhkiG9w0BAQUFADBxMQswCQYDVQQGEwJDTjER
MA8GA1UECAwIU2kgQ2h1YW4xETAPBgNVBAcMCENoZW5nIER1MRUwEwYDVQQKDAxZ
YW8gR3VhaSBMdGQxETAPBgNVBAsMCFlhbyBHdWFpMRIwEAYDVQQDDAkxMjcuMC4w
LjEwHhcNMTgwMTE4MDQ0NzQxWhcNMjgwMTE2MDQ0NzQxWjBeMRIwEAYDVQQDDAkx
MjcuMC4wLjExETAPBgNVBAgMCFNpIENodWFuMQswCQYDVQQGEwJDTjEVMBMGA1UE
CgwMWWFvIEd1YWkgTHRkMREwDwYDVQQLDAhZYW8gR3VhaTCCASIwDQYJKoZIhvcN
AQEBBQADggEPADCCAQoCggEBAOUT0KNLkYYRB3zNEP0x0D9B+3xezoZPjXniKhry
E78GxjuOnO5f9ShJ/SfX/ZE4i/HjlaAqap1pGLq6z63/UZszhM93UeGdr9Lxwjp0
V2aFlCPuNPRrGmAT4nOyouoj2wySRaebZoO1wRWuNzq3ErmXTdZ0xhKhrvL9Uxmp
28lSB4Ar77X87blDvpd/VGJLbxrqmK2YMhtZIg3cJF7gjIx31sgWz20q9DbIJFH9
KeE1cfxr8ySvZeqfJxUvKkIi8QXE2Yx0jyTDmbdB0Htol5XqD849ZJtw70QdC3N3
wDLbGN834ysRBgAVcU+Cum+ENpJw1HkAGtL8k3ZyCtapFEMCAwEAAaMNMAswCQYD
VR0TBAIwADANBgkqhkiG9w0BAQUFAAOCAQEAsVD6FUvrBAh0dzrWpc1I8GYD6LHp
wFL3YOBDNLOWfuyqvnltUHtLNGa8MfaN/feQZ+1Ig5YWSLwerz+7DDAMZr4rpLf5
1ThWCZ4l8W3D+vepUoNCtHubysNOoysmu3CzywSwrKF5nnMYWOFXlKNqmYqc657Z
/KX2PVBloe6y9KDE2uPXW/TQJCw3o775/FLXQvFwrNmPGli1ypyMDUThDcBy0w+n
7LrjR5qLQoQuUsOU50xfnh3FzfPeuMXDjG4fL32+YCfC1eFIrRL3Qj6GmjOU7A3w
FiUAuOy+ZHUGXZARztPwL8Bk44+DkB87jJ/gIwAlolOJgxJTdnXO3nIG6g==
-----END CERTIFICATE-----
