Certificate:
    Data:
        Version: 3 (0x2)
        Serial Number: 1 (0x1)
    Signature Algorithm: sha1WithRSAEncryption
        Issuer: C=CN, ST=Si Chuan, L=Cheng Du, O=Yao Guai Ltd, OU=Yao Guai, CN=127.0.0.1
        Validity
            Not Before: Jan 18 04:47:23 2018 GMT
            Not After : Jan 16 04:47:23 2028 GMT
        Subject: CN=127.0.0.1, ST=Si Chuan, C=CN, O=Yao Guai Ltd, OU=Yao Guai
        Subject Public Key Info:
            Public Key Algorithm: rsaEncryption
                Public-Key: (2048 bit)
                Modulus:
                    00:dd:bb:73:47:cb:a6:0c:85:3e:e6:78:52:67:b4:
                    78:e1:b6:da:59:90:e4:7e:49:af:65:26:66:56:6d:
                    16:a3:d2:fa:db:db:71:5d:9f:3c:f6:d7:fd:40:1a:
                    92:0b:44:a0:73:b1:3e:6c:d5:0c:9f:9c:33:1b:16:
                    b8:c9:c5:06:7b:51:52:d2:ad:64:dd:83:8b:31:a7:
                    62:d4:dc:f0:b9:da:fb:67:89:39:e2:e3:d8:ff:f8:
                    fb:0c:74:ca:b3:cc:8c:4f:16:33:52:81:54:c9:dc:
                    8d:3f:30:51:df:bf:3d:c2:64:1e:3b:45:01:71:dc:
                    46:0b:98:ee:c6:2f:cf:25:23:db:0b:81:e2:ac:9a:
                    d5:96:9a:9f:fe:23:15:34:f1:aa:26:12:c2:fc:5c:
                    a2:f6:ba:6e:88:51:ba:6a:37:82:0b:01:53:6a:c7:
                    eb:5f:75:d3:29:b5:de:df:01:e3:f8:e5:65:44:90:
                    02:63:75:12:16:48:09:a4:27:2e:40:a6:be:29:d8:
                    d5:ff:4d:4c:02:03:94:35:1b:89:2f:cf:97:a9:27:
                    71:6b:0e:af:7a:b7:40:8e:f2:5d:ca:dd:87:2d:7d:
                    ec:cc:db:b5:ca:6f:ae:81:98:6c:38:5e:b0:e7:9b:
                    e0:d9:d2:d3:81:77:df:62:31:f1:ae:fc:43:27:d9:
                    cb:fd
                Exponent: 65537 (0x10001)
        X509v3 extensions:
            X509v3 Basic Constraints: 
                CA:FALSE
    Signature Algorithm: sha1WithRSAEncryption
         40:ca:f3:63:16:42:9e:f4:b3:f4:0e:16:8e:c9:61:9f:55:9d:
         d9:58:b7:0b:25:58:4f:9a:5d:e2:bf:b6:76:1b:5b:b1:8e:80:
         51:c0:e3:01:05:39:63:1d:23:f6:fd:8a:00:e4:c2:b4:aa:75:
         d9:de:b3:c8:fe:f7:2a:f0:19:7b:14:c9:54:e9:25:56:6c:ae:
         0a:de:29:31:50:41:08:5f:cb:cd:0b:fc:72:57:ef:85:62:88:
         6c:88:85:03:96:f8:8e:d3:2e:66:18:4f:33:e9:71:fe:d1:a6:
         01:2f:1d:ea:fd:b5:5a:bf:83:54:38:96:bb:9a:a5:07:1d:69:
         e8:80:19:c4:d8:b1:b4:a3:0d:35:7d:ad:b0:28:64:00:92:72:
         97:a4:d1:30:38:89:95:fc:c3:06:31:ab:b4:f3:8e:0a:04:39:
         a6:8a:85:ed:18:5f:23:67:c4:50:39:f0:d5:72:69:11:3d:61:
         48:58:00:20:7a:46:2f:7e:bd:95:1b:97:7e:46:fe:30:25:22:
         25:f8:b9:21:d9:89:d1:c8:a2:d1:0c:39:18:3f:cc:5c:ff:00:
         11:f5:95:a6:e7:43:9e:53:cc:b9:64:9d:c5:5b:42:c1:29:87:
         2b:1f:fa:cb:de:62:b8:a4:81:ee:3d:e8:2f:5c:b6:2f:81:94:
         d7:31:ed:bc
-----BEGIN CERTIFICATE-----
MIIDVzCCAj+gAwIBAgIBATANBgkqhkiG9w0BAQUFADBxMQswCQYDVQQGEwJDTjER
MA8GA1UECAwIU2kgQ2h1YW4xETAPBgNVBAcMCENoZW5nIER1MRUwEwYDVQQKDAxZ
YW8gR3VhaSBMdGQxETAPBgNVBAsMCFlhbyBHdWFpMRIwEAYDVQQDDAkxMjcuMC4w
LjEwHhcNMTgwMTE4MDQ0NzIzWhcNMjgwMTE2MDQ0NzIzWjBeMRIwEAYDVQQDDAkx
MjcuMC4wLjExETAPBgNVBAgMCFNpIENodWFuMQswCQYDVQQGEwJDTjEVMBMGA1UE
CgwMWWFvIEd1YWkgTHRkMREwDwYDVQQLDAhZYW8gR3VhaTCCASIwDQYJKoZIhvcN
AQEBBQADggEPADCCAQoCggEBAN27c0fLpgyFPuZ4Ume0eOG22lmQ5H5Jr2UmZlZt
FqPS+tvbcV2fPPbX/UAakgtEoHOxPmzVDJ+cMxsWuMnFBntRUtKtZN2DizGnYtTc
8Lna+2eJOeLj2P/4+wx0yrPMjE8WM1KBVMncjT8wUd+/PcJkHjtFAXHcRguY7sYv
zyUj2wuB4qya1Zaan/4jFTTxqiYSwvxcova6bohRumo3ggsBU2rH61910ym13t8B
4/jlZUSQAmN1EhZICaQnLkCmvinY1f9NTAIDlDUbiS/Pl6kncWsOr3q3QI7yXcrd
hy197MzbtcpvroGYbDhesOeb4NnS04F332Ix8a78QyfZy/0CAwEAAaMNMAswCQYD
VR0TBAIwADANBgkqhkiG9w0BAQUFAAOCAQEAQMrzYxZCnvSz9A4Wjslhn1Wd2Vi3
CyVYT5pd4r+2dhtbsY6AUcDjAQU5Yx0j9v2KAOTCtKp12d6zyP73KvAZexTJVOkl
VmyuCt4pMVBBCF/LzQv8clfvhWKIbIiFA5b4jtMuZhhPM+lx/tGmAS8d6v21Wr+D
VDiWu5qlBx1p6IAZxNixtKMNNX2tsChkAJJyl6TRMDiJlfzDBjGrtPOOCgQ5poqF
7RhfI2fEUDnw1XJpET1hSFgAIHpGL369lRuXfkb+MCUiJfi5IdmJ0cii0Qw5GD/M
XP8AEfWVpudDnlPMuWSdxVtCwSmHKx/6y95iuKSB7j3oL1y2L4GU1zHtvA==
-----END CERTIFICATE-----
